(dp0
Vversion
p1
V2.11.0
p2
sVpick_labels
p3
(dp4
Vlabel_style
p5
(lp6
I0
aI0
aI0
aI1
aI1
aI1
aI1
aI0
aI0
aI0
aI0
aI0
aI0
aI0
aI0
aI0
asVmax_labels
p7
I20
sVtruncate_mol_name
p8
I0
sVtruncate_mol_name_length
p9
I6
ssVpicture_wizard
p10
(dp11
Vdefault_drawing_style
p12
VLigand_binding_site:Site_and_ribbons_by_PDB_file
p13
sVshow_wizard_choices
p14
I0
sVkeep_display_objects
p15
I0
sVrecentre_after_wizard
p16
I1
sVhide_unselected_dataobj
p17
I0
sVrecentre
p18
I0
ssVgui_params
p19
(dp20
Vbackground_colour
p21
(lp22
I255
aI255
aI255
asVshow_axes
p23
I0
sVshow_scale
p24
I0
sVmain_toolbar
p25
(dp26
Vtoolbar_icon_size
p27
Vmedium
p28
sVtoolbar_style
p29
Vicon_only
p30
sVtoolbar_loaded_actions
p31
(lp32
Vopen
p33
aVdownload
p34
aVsave_status_to_file
p35
aVscreenshot
p36
aVview_back
p37
aVview_forward
p38
aVdisplay_back
p39
aVdisplay_forward
p40
aVrecentre
p41
aVcentreOn
p42
aVclearLabels
p43
aVfog_on
p44
aVslab_on
p45
aVsuperpose
p46
aVopen_movie
p47
aVnew_movie
p48
aVpreferences
p49
aVpicture_wizard
p50
aVSimpler Display Table
p51
aVProSMART analysis
p52
aVGlycan viewer
p53
aVDownload electron density
p54
aVPDB search
p55
aVGeometry
p56
aVSequence viewer
p57
aVPisa structure analysis
p58
assVcentre_mode
p59
I0
sVdefaultObjBodyVisibility
p60
Vopen_all
p61
sVrockParams
p62
(dp63
Vrollspeed
p64
F0.5
sVrockspeed
p65
F0.5
sVrockangle
p66
I20
sVrollorientation
p67
Vy
p68
ssVlast_directory
p69
V/Users/dialpuri/Development/cartographer/data
p70
ssVmouse_bindings
p71
(dp72
Vrotate-xy
p73
(dp74
Vshift
p75
I0
sVkey
p76
V 
p77
sVmouse_button
p78
Vleft
p79
ssVcoot_bindings
p80
(dp81
g80
I01
sg78
Vmiddle
p82
sg75
I1
sValt
p83
I1
sVctrl
p84
I1
sg76
V^
p85
ssVrotate-z
p86
(dp87
g75
I1
sg76
g77
sg78
g79
ssVzoom
p88
(dp89
g75
I0
sg76
g77
sg78
g82
ssVtranslate-xy
p90
(dp91
g75
I1
sg76
g77
sg78
g82
ssVtranslate-z
p92
(dp93
g75
I0
sg76
Vz
p94
sg78
g82
ssVobject-rotate-xy
p95
(dp96
g75
I0
sg76
Vx
p97
sg78
g79
ssVobject-rotate-z
p98
(dp99
g75
I1
sg76
g97
sg78
g79
ssVobject-translate-xy
p100
(dp101
g75
I0
sg76
g97
sg78
g82
ssVobject-translate-z
p102
(dp103
g75
I1
sg76
g97
sg78
g82
ssVclip-width
p104
(dp105
g75
I0
sg76
Vc
p106
sg78
g82
sssVview2
p107
(dp108
Vquat
p109
(lp110
F-0.6603411228914329
aF0.6877854882775835
aF0.18374057665173693
aF-0.2390400050724609
asVpos
p111
(lp112
F-74.94789265045536
aF-40.49214895633818
aF-64.44960867572321
asVscale
p113
F93.94612027947032
sVfog_enabled
p114
I0
sVfog_strength
p115
I0
sVfog_near
p116
F-0.0
sVfog_far
p117
F20.0
sVslab_enabled
p118
I0
sVslab_width
p119
I10
sVslab_offset
p120
I0
sVclip_cap
p121
I00
sVcustomClipPlanes
p122
(lp123
sVfog_auto
p124
I00
sVslab_auto
p125
I00
sVtransparency
p126
I00
ssVfonts
p127
(dp128
Vatom_label
p129
(dp130
Vfamily
p131
V.AppleSystemUIFont
p132
sVweight
p133
Vnormal
p134
sVslant
p135
Vr
p136
sVunderline
p137
I0
sVsize
p138
I13
ssVannotation
p139
(dp140
g131
V.AppleSystemUIFont
p141
sg133
g134
sg135
g136
sg137
I0
sg138
I18
ssVlegend
p142
(dp143
g131
V.AppleSystemUIFont
p144
sg133
g134
sg135
g136
sg137
I0
sg138
I32
ssVpick_atom_label
p145
(dp146
g131
V.AppleSystemUIFont
p147
sg133
g134
sg135
g136
sg137
I0
sg138
I13
ssVapplicationFont
p148
(dp149
g131
V.AppleSystemUIFont
p150
sg133
g134
sg135
g136
sg137
I0
sg138
I13
sssVfile_viewer
p151
(dp152
Vsupported_plugins
p153
(dp154
ssVparams2
p155
(dp156
Vstereo_prefs
p157
(dp158
Vstereo_mode
p159
I1
sVshear_sep
p160
F0.1
sVrot_sep
p161
F6.0
ssVrender_quality
p162
(dp163
Vsolid_quality
p164
I1
sVsmooth_line
p165
I1
sVuse_vbo
p166
I1
sVforce_use_va
p167
I0
ssVmiscell_prefs
p168
(dp169
Vdepth_text
p170
I0
sVfog_text
p171
I0
sVtext_label_background
p172
I0
sVflip_text
p173
I0
sVtext_label_background_colour
p174
Vwhite
p175
ssVsave_session_options
p176
(dp177
Vrestore_data
p178
I1
sVask_restore_data
p179
I0
sVbackup_data_files
p180
I0
sVinterpret_old_selections
p181
I1
sVsave_projects
p182
I0
ssVsmiles_preferences
p183
(dp184
Vnconf
p185
I20
sVniter
p186
I200
ssVgeometry_preferences
p187
(dp188
Vstyle
p189
VLine
p190
sVwidth
p191
I4
sVline_colour
p192
Vred
p193
sVtext_colour
p194
Vdefault
p195
sVshow_angles
p196
I0
sVshow_torsions
p197
I0
sVsingle_click_label
p198
I1
sVbonds_dp
p199
I2
sVangles_dp
p200
I1
ssVadvanced_options
p201
(dp202
Vdeveloper_mode
p203
I0
sVdockable_display_table
p204
I1
sViconized_display_table
p205
I0
sVsuper_compact_display_table
p206
I0
ssVsequence_preferences
p207
(dp208
Vallow_remote_blast
p209
I0
sVblastp_exe
p210
V
p211
sVblastn_exe
p212
g211
sVblast_db
p213
g211
sVblastdb_exe
p214
g211
sVcobalt_dir
p215
g211
sVcobalt_exe
p216
g211
sVmuscle_exe
p217
g211
sVfont_size
p218
I12
sVcolouring_mode
p219
I0
sVmin_seq_length
p220
I10
sVmrbump_ccp4_dir
p221
g211
sVphmmer_cutoff
p222
I20
sVmrbump_pdb_local
p223
g211
sVhhrfile
p224
g211
ssVsocket_preferences
p225
(dp226
Vopen_socket
p227
I0
sVlocal_only
p228
I1
ssVSecStr_param
p229
(dp230
VflagBulge
p231
I1
sVmin_helix_length
p232
I4
ssVmodel_drawing_style
p233
(dp234
Vbond_width
p235
I2
sVfat_bond_width
p236
I4
sVthin_bond_width
p237
I1
sVcylinder_width
p238
F0.2
sVnucleic_stick_width
p239
F0.4
sVballstick_stick
p240
F0.1
sVribbon_width
p241
F2.5
sValpha_helix_width
p242
F1.5
sVhelix_tube_diameter
p243
F1.5
sVarrow_width
p244
F2.2
sVarrow_length
p245
F2.2
sVworm_width
p246
F0.2
sVribbon_style
p247
I0
sVtwo_colour_ribbon
p248
I0
sVgrey_ribbon_edge
p249
I0
sVhelix_style
p250
I0
sVflatten_loop
p251
I0
sVloop_frac
p252
I1
sVflatten_beta
p253
I1
sVdeloc_ring
p254
I0
sVshow_multiple_bonds
p255
I0
sVanisou_scale_byvdw
p256
I0
sVsphere_radii_scale
p257
F1.0
sVball_radii_scale
p258
F0.2
sVspline_beta_flat
p259
I1
sVdashed_bonds
p260
I0
sVdashed_bond_length
p261
F0.3
sVpyramid_size
p262
F0.1
sVanisou_style
p263
Vsolidaxes
p264
sVanisou_scale
p265
F1.0
sVtrace_cutoff
p266
F4.8
sVglycoblock_stick_colour
p267
Vblack
p268
sVglycoblock_interaction_colour
p269
g268
sVglycoblock_interaction_cylinder_radius
p270
F0.1
sVglycoblock_thickness
p271
F0.35
sVglycoblock_scale
p272
F1.3
sVglycoblock_interaction_line_width
p273
I2
sVglycoblock_interaction_dash_length
p274
F0.36
sVglycoblock_draw_protein_interactions
p275
I0
sVglycoblock_draw_cov_protein_interactions
p276
I1
sVglycoblock_label_protein_interactions
p277
I0
sVglycoblock_interaction_style
p278
VDashed cylinder
p279
sVbase_block_thickness
p280
F0.2
ssVhydrophobicity_preferences
p281
(dp282
sVatom_label_params
p283
(dp284
Vlabel_select
p285
Vlabel_no
p286
sg5
(lp287
I0
aI0
aI0
aI1
aI1
aI1
aI1
aI0
aI0
aI0
aI0
aI0
aI0
aI0
aI0
aI0
asg9
I6
sg8
I0
sVshow_number_label
p288
I0
ssVsurface_drawing_style
p289
(dp290
Vcontext_cutoff
p291
F6.0
sVprobe_radius
p292
F1.5
sVblend_edges
p293
I0
sVresolution_delta
p294
I30
sVdot_spacing
p295
F0.1
sVdot_size
p296
F1.0
sVline_width
p297
F1.0
sVdouble_side
p298
I0
sVinside_colour
p299
g195
sVinside_shiny
p300
I1
sVwarning_limit
p301
I1000
sVwarning_on
p302
I1
ssVcentre_mode
p303
(dp304
Vcentre_method
p305
I0
ssVMapDispParamsManager
p306
(dp307
Vradius
p308
F10.0
sVsurface_style
p309
Vsurface_style_chickenwire
p310
sVcontour_scale
p311
Vabsolute
p312
sVcontour_sigma_max
p313
F5.0
sVncontours
p314
I1
sVsampling_rate
p315
F0.75
sg295
F0.3
sg296
F1.0
sg297
F1.0
sg238
F0.03
sVfirst_colour
p316
Vblue
p317
sVdiff_pos_colour
p318
Vgreen
p319
sVdiff_neg_colour
p320
g193
sg298
I0
sg299
g195
sg300
I1
sVother_colour
p321
Vmagenta
p322
ssVHBond_drawing_style
p323
(dp324
Vline_style
p325
Vlines
p326
sVline_width
p327
I2
sVlabel_mode
p328
I0
sVcontacts_line_style
p329
g326
sVcontacts_line_width
p330
I2
sVcontacts_label_mode
p331
I1
ssVHBond_param
p332
(dp333
Vmin_D_A
p334
F2.0
sVmax_D_A
p335
F3.1
sVmax_D_A_S
p336
F3.9
sVmax_H_A
p337
F2.5
sVmin_DD_D_A
p338
F90.0
sVmin_D_A_AA
p339
F90.0
sVmin_H_A_AA
p340
F90.0
sVmin_D_H_A
p341
F90.0
ssVContacts_param
p342
(dp343
Vtest_VDW_radius
p344
I0
sVlabel_VDW_radius
p345
I0
sVexclude_hbondable
p346
I0
sVtest_metal_coord_distance
p347
I1
sVsimple_min_cutoff
p348
F0.0
sVsimple_max_cutoff
p349
F4.0
sVVDW_fraction_min
p350
F0.0
sVVDW_fraction_max
p351
F0.9
ssVSASArea_param
p352
(dp353
VHOHrad
p354
F1.4
sVpoint_density
p355
F1.0
sVbrick_margin
p356
F5.0
sVexclude_solvent
p357
I1
sVexclude_non_polymer
p358
I1
sVlist_selection_1
p359
Vpolar_atoms
p360
sVlist_selection_2
p361
g211
sVlimit_selection
p362
Vamino_acid
p363
ssVAnimation_param
p364
(dp365
Vupdate_properties
p366
I1
sVdelay
p367
F0.1
sVflash_delay
p368
F0.5
ssVambient_occlusion_prefs
p369
(dp370
Vambocc_znear
p371
F114.0
sVambocc_zfar
p372
F114.5
sVambocc_radius
p373
F19.0
sVambocc_bias
p374
F0.1
sVambocc_scale
p375
F1.0
ssVscreenshot_preferences
p376
(dp377
Voffscreen
p378
I1
sVantialias
p379
I1
ssVmovie_preferences
p380
(dp381
Vconvert_command
p382
V-quality 100
p383
sVffmpeg_command
p384
V-f mpeg -vcodec mpeg1video -ar 48000 -b 7000000 -ab 192000 -y
p385
sVmencoder_command
p386
V-ovc lavc -lavcopts vcodec=msmpeg4v2:vbitrate=1800
p387
sVmencoder_merge_command
p388
V-ovc copy
p389
sVplayer_command
p390
V-loop 0
p391
sVconvert_exe
p392
Vconvert
p393
sVffmpeg_exe
p394
Vffmpeg
p395
sVmencoder_exe
p396
Vmencoder
p397
sVplayer_exe
p398
Vmplayer
p399
sVshow_progress
p400
I1
ssVdownload_preferences
p401
(dp402
Vpreferred_site
p403
VEBI
p404
sVEBI_Search
p405
Vwww.ebi.ac.uk/msd-srv/msdlite/index.html
p406
sVAFDB_Download_PDB
p407
Vhttps://alphafold.ebi.ac.uk/files/AF-AFDBID-F1-model_v4.pdb
p408
sVRCSB_Search
p409
Vwww.rcsb.org/pdb
p410
sVRCSB_Download_PDB
p411
Vhttps://files.rcsb.org/download/PDBID.pdb
p412
sVRCSB_Download_CIF
p413
Vhttps://files.rcsb.org/download/PDBID.cif
p414
sVEBI_Download_PDB
p415
Vhttps://www.ebi.ac.uk/pdbe/entry-files/download/pdbPDBID.ent
p416
sVEBI_Download_CIF
p417
Vhttps://www.ebi.ac.uk/pdbe/entry-files/download/PDBID.cif
p418
sVPDBJapan_Download_PDB
p419
Vftp://www.pdbj.org/pdb_nc/pdbPDBID.ent
p420
sVPDBJapan_Download_CIF
p421
Vftp://ftp.pdbj.org/mmcif/PDBID.cif.gz
p422
sVhttp_proxy
p423
g211
sVhttp_user
p424
g211
sVhttp_password
p425
g211
sVPDBJapan_Search
p426
Vpdbjs3.protein.osaka-u.ac.jp/xPSSS/index.html
p427
ssVmodel_drawing_style971b14ce12a2458db5d40f4e1ffe1042
p428
(dp429
Vbond_width
p430
I2
sVfat_bond_width
p431
I4
sVthin_bond_width
p432
I1
sVcylinder_width
p433
F0.2
sVnucleic_stick_width
p434
F0.4
sVballstick_stick
p435
F0.1
sVribbon_width
p436
F2.5
sValpha_helix_width
p437
F1.5
sVhelix_tube_diameter
p438
F1.5
sVarrow_width
p439
F2.2
sVarrow_length
p440
F2.2
sVworm_width
p441
F0.2
sVribbon_style
p442
I0
sVtwo_colour_ribbon
p443
I0
sVgrey_ribbon_edge
p444
I0
sVhelix_style
p445
I0
sVflatten_loop
p446
I0
sVloop_frac
p447
I1
sVflatten_beta
p448
I1
sVdeloc_ring
p449
I0
sVshow_multiple_bonds
p450
I0
sVanisou_scale_byvdw
p451
I0
sVsphere_radii_scale
p452
F0.3
sVball_radii_scale
p453
F0.2
sVspline_beta_flat
p454
I1
sVdashed_bonds
p455
I0
sVdashed_bond_length
p456
F0.3
sVpyramid_size
p457
F0.1
sVanisou_style
p458
g264
sVanisou_scale
p459
F1.0
sVtrace_cutoff
p460
F4.8
sVglycoblock_stick_colour
p461
g268
sVglycoblock_interaction_colour
p462
g268
sVglycoblock_interaction_cylinder_radius
p463
F0.1
sVglycoblock_thickness
p464
F0.35
sVglycoblock_scale
p465
F1.3
sVglycoblock_interaction_line_width
p466
I2
sVglycoblock_interaction_dash_length
p467
F0.36
sVglycoblock_draw_protein_interactions
p468
I0
sVglycoblock_draw_cov_protein_interactions
p469
I1
sVglycoblock_label_protein_interactions
p470
I0
sVglycoblock_interaction_style
p471
g279
sVbase_block_thickness
p472
F0.2
ssVSurface_electro
p473
(dp474
Vranges
p475
(lp476
F0.0
aF-0.5
aF0.0
aF0.5
aF0.0
asVcolours
p477
(lp478
Vred
p479
aVred
p480
aVwhite
p481
aVblue
p482
aVblue
p483
asVinterpolate_mode
p484
VHSV
p485
sVcolour_wheel_direction
p486
Vclockwise
p487
ssVSurface_map
p488
(dp489
g475
(lp490
F0.0
aF-0.5
aF0.0
aF0.5
aF0.0
asg477
(lp491
Vred
p492
aVred
p493
aVwhite
p494
aVblue
p495
aVblue
p496
asg484
g485
sg486
g487
ssVatomtype
p497
(dp498
g475
(lp499
V*
p500
aV C
p501
aV O
p502
aV N
p503
aV S
p504
aV H
p505
aV P
p506
asg477
(lp507
Vgrey
p508
aVgreen
p509
aVred
p510
aVblue
p511
aVyellow
p512
aVgrey
p513
aVmagenta
p514
asg484
g485
sg486
g487
ssVHBond_drawing_style5fjjHBonds6
p515
(dp516
Vline_style
p517
Vlines
p518
sVline_width
p519
I4
sVlabel_mode
p520
I0
sVcontacts_line_style
p521
g518
sVcontacts_line_width
p522
I2
sVcontacts_label_mode
p523
I1
ssVHBond_drawing_style5fjjHBonds7
p524
(dp525
g517
g518
sg519
I4
sg520
I0
sg521
g518
sg522
I2
sg523
I1
ssVHBond_drawing_style5fjjHBonds8
p526
(dp527
g517
g518
sg519
I4
sg520
I0
sg521
g518
sg522
I2
sg523
I1
ssVHBond_drawing_style5fjjHBonds9
p528
(dp529
g517
g518
sg519
I4
sg520
I0
sg521
g518
sg522
I2
sg523
I1
ssVHBond_drawing_style5fjjHBonds10
p530
(dp531
g517
g518
sg519
I2
sg520
I0
sg521
g518
sg522
I2
sg523
I1
ssVmodel_drawing_style2f12c7a581054fc5901b4fca507337f4
p532
(dp533
Vbond_width
p534
I2
sVfat_bond_width
p535
I4
sVthin_bond_width
p536
I1
sVcylinder_width
p537
F0.2
sVnucleic_stick_width
p538
F0.4
sVballstick_stick
p539
F0.1
sVribbon_width
p540
F2.5
sValpha_helix_width
p541
F1.5
sVhelix_tube_diameter
p542
F1.5
sVarrow_width
p543
F2.2
sVarrow_length
p544
F2.2
sVworm_width
p545
F0.2
sVribbon_style
p546
I0
sVtwo_colour_ribbon
p547
I0
sVgrey_ribbon_edge
p548
I0
sVhelix_style
p549
I0
sVflatten_loop
p550
I0
sVloop_frac
p551
I1
sVflatten_beta
p552
I1
sVdeloc_ring
p553
I0
sVshow_multiple_bonds
p554
I0
sVanisou_scale_byvdw
p555
I0
sVsphere_radii_scale
p556
F0.3
sVball_radii_scale
p557
F0.2
sVspline_beta_flat
p558
I1
sVdashed_bonds
p559
I0
sVdashed_bond_length
p560
F0.3
sVpyramid_size
p561
F0.1
sVanisou_style
p562
g264
sVanisou_scale
p563
F1.0
sVtrace_cutoff
p564
F4.8
sVglycoblock_stick_colour
p565
g268
sVglycoblock_interaction_colour
p566
g268
sVglycoblock_interaction_cylinder_radius
p567
F0.1
sVglycoblock_thickness
p568
F0.35
sVglycoblock_scale
p569
F1.3
sVglycoblock_interaction_line_width
p570
I2
sVglycoblock_interaction_dash_length
p571
F0.36
sVglycoblock_draw_protein_interactions
p572
I0
sVglycoblock_draw_cov_protein_interactions
p573
I1
sVglycoblock_label_protein_interactions
p574
I0
sVglycoblock_interaction_style
p575
g279
sVbase_block_thickness
p576
F0.2
ssVrestype
p577
(dp578
g475
(lp579
g500
aVPHE
p580
aVTRP
p581
aVTYR
p582
aVPRO
p583
aVVAL
p584
aVALA
p585
aVILE
p586
aVLEU
p587
aVSER
p588
aVTHR
p589
aVASN
p590
aVGLN
p591
aVARG
p592
aVLYS
p593
aVASP
p594
aVGLU
p595
aVCYS
p596
aVMET
p597
aVGLY
p598
aVHIS
p599
aVA
p600
aVT
p601
aVG
p602
aVC
p603
aVU
p604
aVDA
p605
aVDT
p606
aVDG
p607
aVDC
p608
aVADE
p609
aVTHY
p610
aVGUA
p611
aVCYT
p612
aVURA
p613
aVBMA
p614
aVMAN
p615
aVNAG
p616
aVGLC
p617
aVBGC
p618
aVGCS
p619
aVGAL
p620
aVNGA
p621
aVMGC
p622
aVNG1
p623
aVNG6
p624
aVA2G
p625
aV6MN
p626
aVGLP
p627
aVGP4
p628
aVBEM
p629
aVKDN
p630
aVXLS
p631
aVCXY
p632
aVRBY
p633
aVTDX
p634
aVXYL
p635
aVXYS
p636
aVXYP
p637
aVFCA
p638
aVFCB
p639
aVFUC
p640
aVGTR
p641
aVADA
p642
aVDGU
p643
aVSI3
p644
aVNCC
p645
aVNGF
p646
aVNGE
p647
aVNGC
p648
aVGC4
p649
aVGCD
p650
aVGCU
p651
aVGCV
p652
aVGCW
p653
aVIDS
p654
aVREL
p655
aVIDR
p656
aVSIA
p657
asg477
(lp658
Vgrey
p659
aVmagenta
p660
aVmagenta
p661
aVmagenta
p662
aVcoral
p663
aVcoral
p664
aVcoral
p665
aVcoral
p666
aVcoral
p667
aVcyan
p668
aVcyan
p669
aVcyan
p670
aVcyan
p671
aVblue
p672
aVblue
p673
aVred
p674
aVred
p675
aVyellow
p676
aVyellow
p677
aVwhite
p678
aVlight blue
p679
aVred
p680
aVyellow
p681
aVgreen
p682
aVblue
p683
aVmagenta
p684
aVred
p685
aVyellow
p686
aVgreen
p687
aVblue
p688
aVred
p689
aVyellow
p690
aVgreen
p691
aVblue
p692
aVmagenta
p693
aVgreen
p694
aVgreen
p695
aVblue
p696
aVblue
p697
aVblue
p698
aVblue
p699
aVyellow
p700
aVyellow
p701
aVyellow
p702
aVyellow
p703
aVyellow
p704
aVyellow
p705
aVblue
p706
aVblue
p707
aVblue
p708
aVgreen
p709
aVlight green
p710
aVcoral
p711
aVcoral
p712
aVcoral
p713
aVcoral
p714
aVcoral
p715
aVcoral
p716
aVcoral
p717
aVred
p718
aVred
p719
aVred
p720
aVyellow
p721
aVyellow
p722
aVyellow
p723
aVpurple
p724
aVpurple
p725
aVlight blue
p726
aVlight blue
p727
aVlight blue
p728
aVblue
p729
aVblue
p730
aVblue
p731
aVblue
p732
aVblue
p733
aVblue
p734
aVblue
p735
aVpale brown
p736
aVpurple
p737
asg484
VHSV
p738
sg486
Vclockwise
p739
ssVmodel_drawing_style259fdc3f08ba42189c3ca88ee39c85b8
p740
(dp741
Vbond_width
p742
I2
sVfat_bond_width
p743
I4
sVthin_bond_width
p744
I1
sVcylinder_width
p745
F0.2
sVnucleic_stick_width
p746
F0.4
sVballstick_stick
p747
F0.1
sVribbon_width
p748
F2.5
sValpha_helix_width
p749
F1.5
sVhelix_tube_diameter
p750
F1.5
sVarrow_width
p751
F2.2
sVarrow_length
p752
F2.2
sVworm_width
p753
F0.2
sVribbon_style
p754
I0
sVtwo_colour_ribbon
p755
I0
sVgrey_ribbon_edge
p756
I0
sVhelix_style
p757
I0
sVflatten_loop
p758
I0
sVloop_frac
p759
I1
sVflatten_beta
p760
I1
sVdeloc_ring
p761
I0
sVshow_multiple_bonds
p762
I0
sVanisou_scale_byvdw
p763
I0
sVsphere_radii_scale
p764
F0.3
sVball_radii_scale
p765
F0.2
sVspline_beta_flat
p766
I1
sVdashed_bonds
p767
I0
sVdashed_bond_length
p768
F0.3
sVpyramid_size
p769
F0.1
sVanisou_style
p770
g264
sVanisou_scale
p771
F1.0
sVtrace_cutoff
p772
F4.8
sVglycoblock_stick_colour
p773
g268
sVglycoblock_interaction_colour
p774
g268
sVglycoblock_interaction_cylinder_radius
p775
F0.1
sVglycoblock_thickness
p776
F0.35
sVglycoblock_scale
p777
F1.3
sVglycoblock_interaction_line_width
p778
I2
sVglycoblock_interaction_dash_length
p779
F0.36
sVglycoblock_draw_protein_interactions
p780
I0
sVglycoblock_draw_cov_protein_interactions
p781
I1
sVglycoblock_label_protein_interactions
p782
I0
sVglycoblock_interaction_style
p783
g279
sVbase_block_thickness
p784
F0.2
ssVmodel_drawing_styled182111d9ae8454fab3828cbd607ebb1
p785
(dp786
Vbond_width
p787
I2
sVfat_bond_width
p788
I4
sVthin_bond_width
p789
I1
sVcylinder_width
p790
F0.2
sVnucleic_stick_width
p791
F0.4
sVballstick_stick
p792
F0.1
sVribbon_width
p793
F2.5
sValpha_helix_width
p794
F1.5
sVhelix_tube_diameter
p795
F1.5
sVarrow_width
p796
F2.2
sVarrow_length
p797
F2.2
sVworm_width
p798
F0.2
sVribbon_style
p799
I0
sVtwo_colour_ribbon
p800
I0
sVgrey_ribbon_edge
p801
I0
sVhelix_style
p802
I0
sVflatten_loop
p803
I0
sVloop_frac
p804
I1
sVflatten_beta
p805
I1
sVdeloc_ring
p806
I0
sVshow_multiple_bonds
p807
I0
sVanisou_scale_byvdw
p808
I0
sVsphere_radii_scale
p809
F0.3
sVball_radii_scale
p810
F0.2
sVspline_beta_flat
p811
I1
sVdashed_bonds
p812
I0
sVdashed_bond_length
p813
F0.3
sVpyramid_size
p814
F0.1
sVanisou_style
p815
g264
sVanisou_scale
p816
F1.0
sVtrace_cutoff
p817
F4.8
sVglycoblock_stick_colour
p818
g268
sVglycoblock_interaction_colour
p819
g268
sVglycoblock_interaction_cylinder_radius
p820
F0.1
sVglycoblock_thickness
p821
F0.35
sVglycoblock_scale
p822
F1.3
sVglycoblock_interaction_line_width
p823
I2
sVglycoblock_interaction_dash_length
p824
F0.36
sVglycoblock_draw_protein_interactions
p825
I0
sVglycoblock_draw_cov_protein_interactions
p826
I1
sVglycoblock_label_protein_interactions
p827
I0
sVglycoblock_interaction_style
p828
g279
sVbase_block_thickness
p829
F0.2
ssVmodel_drawing_style03e09fa059a94917b77ea08c52876d67
p830
(dp831
g235
I2
sg236
I4
sg237
I1
sg238
F0.2
sg239
F0.4
sg240
F0.1
sg241
F2.5
sg242
F1.5
sg243
F1.5
sg244
F2.2
sg245
F2.2
sg246
F0.2
sg247
I0
sg248
I0
sg249
I0
sg250
I0
sg251
I0
sg252
I1
sg253
I1
sg254
I0
sg255
I0
sg256
I0
sg257
F0.3
sg258
F0.2
sg259
I1
sg260
I0
sg261
F0.3
sg262
F0.1
sg263
g264
sg265
F1.0
sg266
F4.8
sg267
g268
sg269
g268
sg270
F0.1
sg271
F0.35
sg272
F1.3
sg273
I2
sg274
F0.36
sg275
I0
sg276
I1
sg277
I0
sg278
g279
sg280
F0.2
sssVModelInfo
p832
(dp833
Vuser_file
p834
(dp835
Vgeneric
p836
(lp837
VdotCCP4MG
p838
aVgeneric.ccp4mg
p839
aV/Users/dialpuri/.CCP4MG2/generic.ccp4mg
p840
asssVAllModelInfo
p841
(dp842
V1hr2
p843
ccopy_reg
_reconstructor
p844
(cModelInfo
ModInfo
p845
c__builtin__
object
p846
Ntp847
Rp848
(dp849
Vccp4mg_version
p850
V2.11.0
p851
sVpdbfile
p852
V/Users/dialpuri/CCP4MG_DOWNLOAD/1hr2.pdb
p853
sVselection_protocols
p854
(dp855
Velement
p856
(dp857
V P
p858
g858
sVMG
p859
g859
sVORDER
p860
(lp861
g858
ag859
asssbssVCOLOUR
p862
(lp863
(lp864
(lp865
g195
a(lp866
F1.0
aF1.0
aF1.0
aF1.0
aaa(lp867
Vice blue
p868
a(lp869
F0.61
aF0.69
aF1.0
aF1.0
aaa(lp870
Vgold
p871
a(lp872
F0.7
aF0.69
aF0.24
aF1.0
aaa(lp873
Vcoral
p874
a(lp875
F1.0
aF0.5
aF0.31
aF1.0
aaa(lp876
Vgrey
p877
a(lp878
F0.5
aF0.5
aF0.5
aF1.0
aaa(lp879
Vpink
p880
a(lp881
F1.0
aF0.57
aF1.0
aF1.0
aaa(lp882
Vsea green
p883
a(lp884
F0.5
aF0.73
aF0.71
aF1.0
aaa(lp885
Vpale brown
p886
a(lp887
F0.66
aF0.49
aF0.37
aF1.0
aaa(lp888
Vlilac
p889
a(lp890
F0.68
aF0.53
aF0.73
aF1.0
aaa(lp891
Vlemon
p892
a(lp893
F1.0
aF1.0
aF0.5
aF1.0
aaa(lp894
Vlawn green
p895
a(lp896
F0.27
aF0.61
aF0.31
aF1.0
aaa(lp897
Vpale crimson
p898
a(lp899
F0.82
aF0.24
aF0.24
aF1.0
aaa(lp900
Vlight blue
p901
a(lp902
F0.25
aF0.6
aF0.88
aF1.0
aaa(lp903
Vtan
p904
a(lp905
F0.47
aF0.0
aF0.0
aF1.0
aaa(lp906
Vlight green
p907
a(lp908
F0.6
aF1.0
aF0.6
aF1.0
aaa(lp909
Vyellow
p910
a(lp911
F1.0
aF1.0
aF0.0
aF1.0
aaa(lp912
Vwhite
p913
a(lp914
F1.0
aF1.0
aF1.0
aF1.0
aaa(lp915
g317
a(lp916
F0.0
aF0.0
aF1.0
aF1.0
aaa(lp917
g193
a(lp918
F1.0
aF0.0
aF0.0
aF1.0
aaa(lp919
g319
a(lp920
F0.0
aF1.0
aF0.0
aF1.0
aaa(lp921
g322
a(lp922
F1.0
aF0.0
aF1.0
aF1.0
aaa(lp923
Vcyan
p924
a(lp925
F0.0
aF1.0
aF0.88
aF1.0
aaa(lp926
Vpurple
p927
a(lp928
F0.58
aF0.0
aF1.0
aF1.0
aaa(lp929
Vdark purple
p930
a(lp931
F0.57
aF0.13
aF0.34
aF1.0
aaa(lp932
Vdark cyan
p933
a(lp934
F0.06
aF0.58
aF0.65
aF1.0
aaa(lp935
g268
a(lp936
F0.0
aF0.0
aF0.0
aF1.0
aaa(lp937
Valice blue
p938
a(lp939
F0.94
aF0.97
aF1.0
aF1.0
aaa(lp940
Vantique white
p941
a(lp942
F0.98
aF0.92
aF0.84
aF1.0
aaa(lp943
Vaqua
p944
a(lp945
F0.0
aF1.0
aF1.0
aF1.0
aaa(lp946
Vaquamarine
p947
a(lp948
F0.5
aF1.0
aF0.83
aF1.0
aaa(lp949
Vazure
p950
a(lp951
F0.94
aF1.0
aF1.0
aF1.0
aaa(lp952
Vbeige
p953
a(lp954
F0.96
aF0.96
aF0.86
aF1.0
aaa(lp955
Vbisque
p956
a(lp957
F1.0
aF0.89
aF0.77
aF1.0
aaa(lp958
Vblanched almond
p959
a(lp960
F1.0
aF0.92
aF0.8
aF1.0
aaa(lp961
Vblue violet
p962
a(lp963
F0.54
aF0.17
aF0.89
aF1.0
aaa(lp964
Vbrown
p965
a(lp966
F0.65
aF0.16
aF0.16
aF1.0
aaa(lp967
Vburlywood
p968
a(lp969
F0.87
aF0.72
aF0.53
aF1.0
aaa(lp970
Vcadet blue
p971
a(lp972
F0.37
aF0.62
aF0.63
aF1.0
aaa(lp973
Vchartreuse
p974
a(lp975
F0.5
aF1.0
aF0.0
aF1.0
aaa(lp976
Vchocolate
p977
a(lp978
F0.82
aF0.41
aF0.12
aF1.0
aaa(lp979
Vcornflower blue
p980
a(lp981
F0.39
aF0.58
aF0.93
aF1.0
aaa(lp982
Vcornsilk
p983
a(lp984
F1.0
aF0.97
aF0.86
aF1.0
aaa(lp985
Vcrimson
p986
a(lp987
F0.86
aF0.08
aF0.24
aF1.0
aaa(lp988
Vdark blue
p989
a(lp990
F0.0
aF0.0
aF0.55
aF1.0
aaa(lp991
Vdark goldenrod
p992
a(lp993
F0.72
aF0.53
aF0.04
aF1.0
aaa(lp994
Vdark gray
p995
a(lp996
F0.66
aF0.66
aF0.66
aF1.0
aaa(lp997
Vdark green
p998
a(lp999
F0.0
aF0.39
aF0.0
aF1.0
aaa(lp1000
Vdark grey
p1001
a(lp1002
F0.66
aF0.66
aF0.66
aF1.0
aaa(lp1003
Vdark khaki
p1004
a(lp1005
F0.74
aF0.72
aF0.42
aF1.0
aaa(lp1006
Vdark magenta
p1007
a(lp1008
F0.55
aF0.0
aF0.55
aF1.0
aaa(lp1009
Vdark olive green
p1010
a(lp1011
F0.33
aF0.42
aF0.18
aF1.0
aaa(lp1012
Vdark orange
p1013
a(lp1014
F1.0
aF0.55
aF0.0
aF1.0
aaa(lp1015
Vdark orchid
p1016
a(lp1017
F0.6
aF0.2
aF0.8
aF1.0
aaa(lp1018
Vdark red
p1019
a(lp1020
F0.55
aF0.0
aF0.0
aF1.0
aaa(lp1021
Vdark salmon
p1022
a(lp1023
F0.91
aF0.59
aF0.48
aF1.0
aaa(lp1024
Vdark sea green
p1025
a(lp1026
F0.56
aF0.74
aF0.56
aF1.0
aaa(lp1027
Vdark slate blue
p1028
a(lp1029
F0.28
aF0.24
aF0.55
aF1.0
aaa(lp1030
Vdark slate gray
p1031
a(lp1032
F0.18
aF0.31
aF0.31
aF1.0
aaa(lp1033
Vdark slate grey
p1034
a(lp1035
F0.18
aF0.31
aF0.31
aF1.0
aaa(lp1036
Vdark turquoise
p1037
a(lp1038
F0.0
aF0.81
aF0.82
aF1.0
aaa(lp1039
Vdark violet
p1040
a(lp1041
F0.58
aF0.0
aF0.83
aF1.0
aaa(lp1042
Vdeep pink
p1043
a(lp1044
F1.0
aF0.08
aF0.58
aF1.0
aaa(lp1045
Vdeep sky blue
p1046
a(lp1047
F0.0
aF0.75
aF1.0
aF1.0
aaa(lp1048
Vdim gray
p1049
a(lp1050
F0.41
aF0.41
aF0.41
aF1.0
aaa(lp1051
Vdim grey
p1052
a(lp1053
F0.41
aF0.41
aF0.41
aF1.0
aaa(lp1054
Vdodger blue
p1055
a(lp1056
F0.12
aF0.56
aF1.0
aF1.0
aaa(lp1057
Vfirebrick
p1058
a(lp1059
F0.7
aF0.13
aF0.13
aF1.0
aaa(lp1060
Vfloral white
p1061
a(lp1062
F1.0
aF0.98
aF0.94
aF1.0
aaa(lp1063
Vforest green
p1064
a(lp1065
F0.13
aF0.55
aF0.13
aF1.0
aaa(lp1066
Vfuchsia
p1067
a(lp1068
F1.0
aF0.0
aF1.0
aF1.0
aaa(lp1069
Vgainsboro
p1070
a(lp1071
F0.86
aF0.86
aF0.86
aF1.0
aaa(lp1072
Vghost white
p1073
a(lp1074
F0.97
aF0.97
aF1.0
aF1.0
aaa(lp1075
Vgoldenrod
p1076
a(lp1077
F0.85
aF0.65
aF0.13
aF1.0
aaa(lp1078
Vgray
p1079
a(lp1080
F0.75
aF0.75
aF0.75
aF1.0
aaa(lp1081
Vgreen yellow
p1082
a(lp1083
F0.68
aF1.0
aF0.18
aF1.0
aaa(lp1084
Vhoneydew
p1085
a(lp1086
F0.94
aF1.0
aF0.94
aF1.0
aaa(lp1087
Vhot pink
p1088
a(lp1089
F1.0
aF0.41
aF0.71
aF1.0
aaa(lp1090
Vindian red
p1091
a(lp1092
F0.8
aF0.36
aF0.36
aF1.0
aaa(lp1093
Vindigo
p1094
a(lp1095
F0.29
aF0.0
aF0.51
aF1.0
aaa(lp1096
Vivory
p1097
a(lp1098
F1.0
aF1.0
aF0.94
aF1.0
aaa(lp1099
Vkhaki
p1100
a(lp1101
F0.94
aF0.9
aF0.55
aF1.0
aaa(lp1102
Vlavender blush
p1103
a(lp1104
F1.0
aF0.94
aF0.96
aF1.0
aaa(lp1105
Vlavender
p1106
a(lp1107
F0.9
aF0.9
aF0.98
aF1.0
aaa(lp1108
Vlemon chiffon
p1109
a(lp1110
F1.0
aF0.98
aF0.8
aF1.0
aaa(lp1111
Vlight coral
p1112
a(lp1113
F0.94
aF0.5
aF0.5
aF1.0
aaa(lp1114
Vlight cyan
p1115
a(lp1116
F0.88
aF1.0
aF1.0
aF1.0
aaa(lp1117
Vlight goldenrod yellow
p1118
a(lp1119
F0.98
aF0.98
aF0.82
aF1.0
aaa(lp1120
Vlight goldenrod
p1121
a(lp1122
F0.93
aF0.87
aF0.51
aF1.0
aaa(lp1123
Vlight gray
p1124
a(lp1125
F0.83
aF0.83
aF0.83
aF1.0
aaa(lp1126
Vlight grey
p1127
a(lp1128
F0.83
aF0.83
aF0.83
aF1.0
aaa(lp1129
Vlight pink
p1130
a(lp1131
F1.0
aF0.71
aF0.76
aF1.0
aaa(lp1132
Vlight salmon
p1133
a(lp1134
F1.0
aF0.63
aF0.48
aF1.0
aaa(lp1135
Vlight sea green
p1136
a(lp1137
F0.13
aF0.7
aF0.67
aF1.0
aaa(lp1138
Vlight sky blue
p1139
a(lp1140
F0.53
aF0.81
aF0.98
aF1.0
aaa(lp1141
Vlight slate blue
p1142
a(lp1143
F0.52
aF0.44
aF1.0
aF1.0
aaa(lp1144
Vlight slate gray
p1145
a(lp1146
F0.47
aF0.53
aF0.6
aF1.0
aaa(lp1147
Vlight slate grey
p1148
a(lp1149
F0.47
aF0.53
aF0.6
aF1.0
aaa(lp1150
Vlight steel blue
p1151
a(lp1152
F0.69
aF0.77
aF0.87
aF1.0
aaa(lp1153
Vlight yellow
p1154
a(lp1155
F1.0
aF1.0
aF0.88
aF1.0
aaa(lp1156
Vlime green
p1157
a(lp1158
F0.2
aF0.8
aF0.2
aF1.0
aaa(lp1159
Vlime
p1160
a(lp1161
F0.0
aF1.0
aF0.0
aF1.0
aaa(lp1162
Vlinen
p1163
a(lp1164
F0.98
aF0.94
aF0.9
aF1.0
aaa(lp1165
Vmaroon
p1166
a(lp1167
F0.69
aF0.19
aF0.38
aF1.0
aaa(lp1168
Vmedium aquamarine
p1169
a(lp1170
F0.4
aF0.8
aF0.67
aF1.0
aaa(lp1171
Vmedium blue
p1172
a(lp1173
F0.0
aF0.0
aF0.8
aF1.0
aaa(lp1174
Vmedium orchid
p1175
a(lp1176
F0.73
aF0.33
aF0.83
aF1.0
aaa(lp1177
Vmedium purple
p1178
a(lp1179
F0.58
aF0.44
aF0.86
aF1.0
aaa(lp1180
Vmedium sea green
p1181
a(lp1182
F0.24
aF0.7
aF0.44
aF1.0
aaa(lp1183
Vmedium slate blue
p1184
a(lp1185
F0.48
aF0.41
aF0.93
aF1.0
aaa(lp1186
Vmedium spring green
p1187
a(lp1188
F0.0
aF0.98
aF0.6
aF1.0
aaa(lp1189
Vmedium turquoise
p1190
a(lp1191
F0.28
aF0.82
aF0.8
aF1.0
aaa(lp1192
Vmedium violet red
p1193
a(lp1194
F0.78
aF0.08
aF0.52
aF1.0
aaa(lp1195
Vmidnight blue
p1196
a(lp1197
F0.1
aF0.1
aF0.44
aF1.0
aaa(lp1198
Vmint cream
p1199
a(lp1200
F0.96
aF1.0
aF0.98
aF1.0
aaa(lp1201
Vmisty rose
p1202
a(lp1203
F1.0
aF0.89
aF0.88
aF1.0
aaa(lp1204
Vmoccasin
p1205
a(lp1206
F1.0
aF0.89
aF0.71
aF1.0
aaa(lp1207
Vnavajo white
p1208
a(lp1209
F1.0
aF0.87
aF0.68
aF1.0
aaa(lp1210
Vnavy blue
p1211
a(lp1212
F0.0
aF0.0
aF0.5
aF1.0
aaa(lp1213
Vnavy
p1214
a(lp1215
F0.0
aF0.0
aF0.5
aF1.0
aaa(lp1216
Vold lace
p1217
a(lp1218
F0.99
aF0.96
aF0.9
aF1.0
aaa(lp1219
Volive drab
p1220
a(lp1221
F0.42
aF0.56
aF0.14
aF1.0
aaa(lp1222
Volive
p1223
a(lp1224
F0.5
aF0.5
aF0.0
aF1.0
aaa(lp1225
Vorange red
p1226
a(lp1227
F1.0
aF0.27
aF0.0
aF1.0
aaa(lp1228
Vorange
p1229
a(lp1230
F1.0
aF0.65
aF0.0
aF1.0
aaa(lp1231
Vorchid
p1232
a(lp1233
F0.85
aF0.44
aF0.84
aF1.0
aaa(lp1234
Vpale goldenrod
p1235
a(lp1236
F0.93
aF0.91
aF0.67
aF1.0
aaa(lp1237
Vpale green
p1238
a(lp1239
F0.6
aF0.98
aF0.6
aF1.0
aaa(lp1240
Vpale turquoise
p1241
a(lp1242
F0.69
aF0.93
aF0.93
aF1.0
aaa(lp1243
Vpale violet red
p1244
a(lp1245
F0.86
aF0.44
aF0.58
aF1.0
aaa(lp1246
Vpapaya whip
p1247
a(lp1248
F1.0
aF0.94
aF0.84
aF1.0
aaa(lp1249
Vpeach puff
p1250
a(lp1251
F1.0
aF0.85
aF0.73
aF1.0
aaa(lp1252
Vperu
p1253
a(lp1254
F0.8
aF0.52
aF0.25
aF1.0
aaa(lp1255
Vplum
p1256
a(lp1257
F0.87
aF0.63
aF0.87
aF1.0
aaa(lp1258
Vpowder blue
p1259
a(lp1260
F0.69
aF0.88
aF0.9
aF1.0
aaa(lp1261
Vrebecca purple
p1262
a(lp1263
F0.4
aF0.2
aF0.6
aF1.0
aaa(lp1264
Vrosy brown
p1265
a(lp1266
F0.74
aF0.56
aF0.56
aF1.0
aaa(lp1267
Vroyal blue
p1268
a(lp1269
F0.25
aF0.41
aF0.88
aF1.0
aaa(lp1270
Vsaddle brown
p1271
a(lp1272
F0.55
aF0.27
aF0.07
aF1.0
aaa(lp1273
Vsalmon
p1274
a(lp1275
F0.98
aF0.5
aF0.45
aF1.0
aaa(lp1276
Vsandy brown
p1277
a(lp1278
F0.96
aF0.64
aF0.38
aF1.0
aaa(lp1279
Vseashell
p1280
a(lp1281
F1.0
aF0.96
aF0.93
aF1.0
aaa(lp1282
Vsienna
p1283
a(lp1284
F0.63
aF0.32
aF0.18
aF1.0
aaa(lp1285
Vsilver
p1286
a(lp1287
F0.75
aF0.75
aF0.75
aF1.0
aaa(lp1288
Vsky blue
p1289
a(lp1290
F0.53
aF0.81
aF0.92
aF1.0
aaa(lp1291
Vslate blue
p1292
a(lp1293
F0.42
aF0.35
aF0.8
aF1.0
aaa(lp1294
Vslate gray
p1295
a(lp1296
F0.44
aF0.5
aF0.56
aF1.0
aaa(lp1297
Vslate grey
p1298
a(lp1299
F0.44
aF0.5
aF0.56
aF1.0
aaa(lp1300
Vsnow
p1301
a(lp1302
F1.0
aF0.98
aF0.98
aF1.0
aaa(lp1303
Vspring green
p1304
a(lp1305
F0.0
aF1.0
aF0.5
aF1.0
aaa(lp1306
Vsteel blue
p1307
a(lp1308
F0.27
aF0.51
aF0.71
aF1.0
aaa(lp1309
Vteal
p1310
a(lp1311
F0.0
aF0.5
aF0.5
aF1.0
aaa(lp1312
Vthistle
p1313
a(lp1314
F0.85
aF0.75
aF0.85
aF1.0
aaa(lp1315
Vtomato
p1316
a(lp1317
F1.0
aF0.39
aF0.28
aF1.0
aaa(lp1318
Vturquoise
p1319
a(lp1320
F0.25
aF0.88
aF0.82
aF1.0
aaa(lp1321
Vviolet red
p1322
a(lp1323
F0.82
aF0.13
aF0.56
aF1.0
aaa(lp1324
Vviolet
p1325
a(lp1326
F0.93
aF0.51
aF0.93
aF1.0
aaa(lp1327
Vweb gray
p1328
a(lp1329
F0.5
aF0.5
aF0.5
aF1.0
aaa(lp1330
Vweb green
p1331
a(lp1332
F0.0
aF0.5
aF0.0
aF1.0
aaa(lp1333
Vweb grey
p1334
a(lp1335
F0.5
aF0.5
aF0.5
aF1.0
aaa(lp1336
Vweb maroon
p1337
a(lp1338
F0.5
aF0.0
aF0.0
aF1.0
aaa(lp1339
Vweb purple
p1340
a(lp1341
F0.5
aF0.0
aF0.5
aF1.0
aaa(lp1342
Vwheat
p1343
a(lp1344
F0.96
aF0.87
aF0.7
aF1.0
aaa(lp1345
Vwhite smoke
p1346
a(lp1347
F0.96
aF0.96
aF0.96
aF1.0
aaa(lp1348
Vx11 gray
p1349
a(lp1350
F0.75
aF0.75
aF0.75
aF1.0
aaa(lp1351
Vx11 green
p1352
a(lp1353
F0.0
aF1.0
aF0.0
aF1.0
aaa(lp1354
Vx11 grey
p1355
a(lp1356
F0.75
aF0.75
aF0.75
aF1.0
aaa(lp1357
Vx11 maroon
p1358
a(lp1359
F0.69
aF0.19
aF0.38
aF1.0
aaa(lp1360
Vx11 purple
p1361
a(lp1362
F0.63
aF0.13
aF0.94
aF1.0
aaa(lp1363
Vyellow green
p1364
a(lp1365
F0.6
aF0.8
aF0.2
aF1.0
aaaaI169
asVlight
p1366
(dp1367
VnLights
p1368
I1
sI0
(dp1369
Vposition
p1370
(F0.0
F0.0
F60.0
tp1371
sVambient
p1372
(F0.0
F0.0
F0.0
tp1373
sVspecular
p1374
(F1.0
F1.0
F1.0
tp1375
sVdiffuse
p1376
g1375
sVon
p1377
I1
sssg843
g844
(cdataobj
DataObjShadow
p1378
g846
Ntp1379
Rp1380
(dp1381
Vname
p1382
g843
sVobject_type
p1383
VMolData
p1384
sVfilename
p1385
(lp1386
VFULLPATH
p1387
aV/Users/dialpuri/Downloads/1hr2.pdb
p1388
ag1388
asVdataparams
p1389
(dp1390
Vmodule
p1391
Vmodel
p1392
sg1383
g1384
sg1385
g1386
sVvisible
p1393
I1
sVccp4mg_creator_version
p1394
g2
sVexpanded
p1395
I1
sVcustomResCIFFiles
p1396
(dp1397
sVuuid
p1398
V454e0cea052848c4b9633dca8c4fe865
p1399
sVmodel_symmetry
p1400
(dp1401
Vsymmetry_MolDisp_objects
p1402
(lp1403
sVsymmetry_colours
p1404
(lp1405
sVsymmetry_visible
p1406
(lp1407
sVMolDisp_visible
p1408
I1
sVMolDisp_selection
p1409
Vall atoms
p1410
ssVcheck_graphs
p1411
I1
sVmol_colour
p1412
g868
sVlastWizardRun
p1413
VLigand_binding_site:Site_and_ribbons_by_PDB_file
p1414
sVshow_aromatic_rings
p1415
I1
ssVobjnames
p1416
(lp1417
V1hr2MolDisp2
p1418
aV1hr2MolDisp3
p1419
aV1hr2MolDisp4
p1420
aV1hr2MolDisp5
p1421
aV1hr2MolDisp6
p1422
aV1hr2MolDisp7
p1423
asVobjinsts
p1424
(lp1425
g844
(cdataobj
DispObjShadow
p1426
g846
Ntp1427
Rp1428
(dp1429
g1382
g1418
sg1383
VMolDisp
p1430
sg1393
I0
sVparams
p1431
(dp1432
g1393
I0
sVopacity
p1433
F1.0
sVlegend_visible
p1434
I0
sVcustomSelectionName
p1435
g211
sVdisplay_class
p1436
Vmetal
p1437
sg1398
Vcef04925a7b14ed8bc9afec5b8b084fc
p1438
sVlabel_params
p1439
(dp1440
g285
g286
sg5
g287
sVlabel_colour
p1441
Vcomplement
p1442
sVlabel_user_selparams
p1443
(dp1444
sVlabel_user_oneperres
p1445
I1
sg9
I6
sg8
I0
ssVdoCentralSymmetry
p1446
I01
sVdoBiomolecule
p1447
I00
sVnbiomol
p1448
I-1
sVdoSymmetry
p1449
I01
sVdrawing_style
p1450
g830
sVcontact_MolDisp
p1451
g211
ssVselparams
p1452
(dp1453
Vselect
p1454
Vcid
p1455
sVnothydrogen
p1456
I0
sVrestypes
p1457
(lp1458
sVelementtypes
p1459
(lp1460
sVnmr_models
p1461
(lp1462
sVsymid
p1463
g211
sVneighb_sel
p1464
g211
sVneighb_mol
p1465
g211
sVneighb_rad
p1466
V4.0
p1467
sVneighb_group
p1468
Vresidue
p1469
sVneighb_hb
p1470
I0
sVneighb_excl
p1471
I1
sVneighb_excl_solvent
p1472
I0
sVneighb_excl_monomer
p1473
I0
sVneighb_sym
p1474
I0
sVneighb_selobj
p1475
g211
sVburied_sel
p1476
g211
sVburied_group
p1477
Vatom
p1478
sVburied_mol
p1479
g211
sVburied_and_selection
p1480
g211
sVfeatures
p1481
g211
sVcontact_sel
p1482
g211
sVcontact_mol
p1483
g211
sVproperty_join
p1484
Vand
p1485
sVproperty_gt_op
p1486
(lp1487
sVproperty_gt_value
p1488
(lp1489
sVproperty
p1490
(lp1491
sVproperty_lt_op
p1492
(lp1493
sVproperty_lt_value
p1494
(lp1495
sVsecstr
p1496
(lp1497
sg475
(lp1498
sVranges_extend
p1499
I1
sVranges_qualifier
p1500
g211
sVranges_invert
p1501
I0
sVranges_neighb_cutoff
p1502
F4.0
sVranges_neighb_model
p1503
g211
sVranges_neighb_selection
p1504
g211
sVranges_neighb_invert
p1505
I0
sVranges_neighb_qualifier
p1506
Vall
p1507
sVuser_sel
p1508
g211
sValt_locs
p1509
(lp1510
sVas_MolDisp
p1511
g211
sVselection_scheme
p1512
g211
sVatomtype
p1513
g211
sVchains
p1514
(lp1515
sVligands
p1516
(lp1517
sVsites
p1518
(lp1519
sVentities
p1520
(lp1521
sVnglycosylation
p1522
(lp1523
sVoglycosylation
p1524
(lp1525
sVuse_all_models
p1526
I00
sg1455
Vmetal and not solute
p1527
sVcommand
p1528
Vmetal and {not solute}
p1529
sVsame_as
p1530
I0
ssVcolparams
p1531
(dp1532
Vcolour_mode
p1533
g1513
sVone_colour
p1534
g211
sVnon_C_atomtype
p1535
I0
sVstick_colour
p1536
VATOM
p1537
sVuser_scheme
p1538
(lp1539
VEdited scheme
p1540
asVcolour_rules
p1541
(lp1542
sVcolour_legend
p1543
V<p><span style="color:;">Atom type </span>\u000a</p><p><span style="color:green;">C  </span>\u000a<span style="color:red;">O  </span>\u000a<span style="color:blue;">N  </span>\u000a<span style="color:yellow;">S  </span>\u000a<span style="color:grey;">H  </span>\u000a<span style="color:magenta;">P  </span>\u000a</p>
p1544
sVinterface_style
p1545
VRESIDUE
p1546
sVinterface_selection
p1547
g211
sVinterface_MolData_name
p1548
g211
sVcolour_blend
p1549
(dp1550
Vgroup
p1551
g1469
sVdefault_colour
p1552
g175
sVtype
p1553
g1507
sVselection_command
p1554
(lp1555
Vnucleic
p1556
asg477
(lp1557
(lp1558
Vblue
p1559
aVred
p1560
aasVdirection
p1561
(lp1562
Vanti-clockwise
p1563
asssVstyleparams
p1564
(dp1565
Vstyle_mode
p1566
VSPHERES
p1567
sVinter_dispobj_bond
p1568
I1
ssbag844
(g1426
g846
Ntp1569
Rp1570
(dp1571
g1382
g1419
sg1383
g1430
sg1393
I0
sg1431
(dp1572
g1393
I0
sg1433
F1.0
sg1434
I0
sg1435
g211
sg1436
Vwater
p1573
sg1398
V02ac023702484987aea8d56458a2a3c1
p1574
sg1439
(dp1575
g285
g286
sg5
g287
sg1441
g1442
sg1443
g1444
sg1445
I1
sg9
I6
sg8
I0
ssg1446
I01
sg1447
I00
sg1448
I-1
sg1449
I01
sg1451
g211
ssg1452
(dp1576
g1454
g1455
sg1456
I0
sg1457
(lp1577
sg1459
(lp1578
sg1461
(lp1579
sg1463
g211
sg1464
g211
sg1465
g211
sg1466
g1467
sg1468
g1469
sg1470
I0
sg1471
I1
sg1472
I0
sg1473
I0
sg1474
I0
sg1475
g211
sg1476
g211
sg1477
g1478
sg1479
g211
sg1480
g211
sg1481
g211
sg1482
g211
sg1483
g211
sg1484
g1485
sg1486
(lp1580
sg1488
(lp1581
sg1490
(lp1582
sg1492
(lp1583
sg1494
(lp1584
sg1496
(lp1585
sg475
(lp1586
sg1499
I1
sg1500
g211
sg1501
I0
sg1502
F4.0
sg1503
g211
sg1504
g211
sg1505
I0
sg1506
g1507
sg1508
g211
sg1509
(lp1587
sg1511
g211
sg1512
g211
sg1513
g211
sg1514
(lp1588
sg1516
(lp1589
sg1518
(lp1590
sg1520
(lp1591
sg1522
(lp1592
sg1524
(lp1593
sg1526
I00
sg1455
g1573
sg1528
g1573
sg1530
I0
ssg1531
(dp1594
g1533
g1513
sg1534
g211
sg1535
I0
sg1536
g1537
sg1538
g1539
sg1541
g1542
sg1543
g211
sg1545
g1546
sg1547
g211
sg1548
g211
sg1549
(dp1595
g1551
g1469
sg1552
g175
sg1553
g1507
sg1554
(lp1596
g1556
asg477
g1557
sg1561
g1562
sssg1564
(dp1597
g1566
VCYLINDERS
p1598
sg1568
I1
ssbag844
(g1426
g846
Ntp1599
Rp1600
(dp1601
g1382
g1420
sg1383
g1430
sg1393
I0
sg1431
(dp1602
g1393
I0
sg1433
F1.0
sg1434
I0
sg1435
g211
sg1436
Vribbon
p1603
sg1398
Vd2df4c5b06a441a3864ebfb8b74e5151
p1604
sg1439
(dp1605
g285
g286
sg5
g287
sg1441
g1442
sg1443
g1444
sg1445
I1
sg9
I6
sg8
I0
ssg1446
I01
sg1447
I00
sg1448
I-1
sg1449
I01
sg1451
g211
ssg1452
(dp1606
g1454
g1556
sg1456
I0
sg1457
(lp1607
sg1459
(lp1608
sg1461
(lp1609
sg1463
g211
sg1464
g211
sg1465
g211
sg1466
g1467
sg1468
g1469
sg1470
I0
sg1471
I1
sg1472
I0
sg1473
I0
sg1474
I0
sg1475
g211
sg1476
g211
sg1477
g1478
sg1479
g211
sg1480
g211
sg1481
g211
sg1482
g211
sg1483
g211
sg1484
g1485
sg1486
(lp1610
sg1488
(lp1611
sg1490
(lp1612
sg1492
(lp1613
sg1494
(lp1614
sg1496
(lp1615
sg475
(lp1616
sg1499
I1
sg1500
g211
sg1501
I0
sg1502
F4.0
sg1503
g211
sg1504
g211
sg1505
I0
sg1506
g1507
sg1508
g211
sg1509
(lp1617
sg1511
g211
sg1512
g211
sg1513
g211
sg1514
(lp1618
sg1516
(lp1619
sg1518
(lp1620
sg1520
(lp1621
sg1522
(lp1622
sg1524
(lp1623
sg1526
I00
sg1455
g211
sg1528
g1556
sg1530
I0
ssg1531
(dp1624
g1533
g1534
sg1534
g868
sg1535
I0
sg1536
g1537
sg1538
g1539
sg1541
g1542
sg1543
V<span style="color:ice blue;">1hr2 </span>\u000a</p><p>
p1625
sg1545
g1546
sg1547
g211
sg1548
g211
sg1549
(dp1626
g1551
g1469
sg1552
g175
sg1553
g1507
sg1554
(lp1627
g1556
asg477
g1557
sg1561
g1562
sssg1564
(dp1628
g1566
VSPLINE
p1629
sg1568
I1
ssbag844
(g1426
g846
Ntp1630
Rp1631
(dp1632
g1382
g1421
sg1383
g1430
sg1393
I0
sg1431
(dp1633
g1393
I0
sg1433
F1.0
sg1434
I0
sg1435
g211
sg1436
Vnucleic_acid
p1634
sg1398
Vc32569e1926d439aaf8d1e823dd6d5d6
p1635
sg1439
(dp1636
g285
g286
sg5
g287
sg1441
g1442
sg1443
g1444
sg1445
I1
sg9
I6
sg8
I0
ssg1446
I01
sg1447
I00
sg1448
I-1
sg1449
I01
sg1451
g211
ssg1452
(dp1637
g1454
g1455
sg1456
I0
sg1457
(lp1638
sg1459
(lp1639
sg1461
(lp1640
sg1463
g211
sg1464
g211
sg1465
g211
sg1466
g1467
sg1468
g1469
sg1470
I0
sg1471
I1
sg1472
I0
sg1473
I0
sg1474
I0
sg1475
g211
sg1476
g211
sg1477
g1478
sg1479
g211
sg1480
g211
sg1481
g211
sg1482
g211
sg1483
g211
sg1484
g1485
sg1486
(lp1641
sg1488
(lp1642
sg1490
(lp1643
sg1492
(lp1644
sg1494
(lp1645
sg1496
(lp1646
sg475
(lp1647
sg1499
I1
sg1500
g211
sg1501
I0
sg1502
F4.0
sg1503
g211
sg1504
g211
sg1505
I0
sg1506
g1507
sg1508
g211
sg1509
(lp1648
sg1511
g211
sg1512
g211
sg1513
g211
sg1514
(lp1649
sg1516
(lp1650
sg1518
(lp1651
sg1520
(lp1652
sg1522
(lp1653
sg1524
(lp1654
sg1526
I00
sg1455
Vbase
p1655
sg1528
g1655
sg1530
I0
ssg1531
(dp1656
g1533
g1534
sg1534
g868
sg1535
I0
sg1536
g1537
sg1538
g1539
sg1541
g1542
sg1543
V<span style="color:ice blue;">1hr2 </span>\u000a</p><p>
p1657
sg1545
g1546
sg1547
g211
sg1548
g211
sg1549
(dp1658
g1551
g1469
sg1552
g175
sg1553
g1507
sg1554
(lp1659
g1556
asg477
g1557
sg1561
g1562
sssg1564
(dp1660
g1566
g1598
sg1568
I1
ssbag844
(g1426
g846
Ntp1661
Rp1662
(dp1663
g1382
g1422
sg1383
g1430
sg1393
I0
sg1431
(dp1664
g1393
I0
sg1433
F1.0
sg1434
I0
sg1435
g211
sg1436
g1634
sg1398
V3aabfa24edba46ec9bb6c0d00b146016
p1665
sg1439
(dp1666
g285
g286
sg5
g287
sg1441
g1442
sg1443
g1444
sg1445
I1
sg9
I6
sg8
I0
ssg1446
I01
sg1447
I00
sg1448
I-1
sg1449
I01
sg1451
g211
ssg1452
(dp1667
g1454
g1556
sg1456
I0
sg1457
(lp1668
sg1459
(lp1669
sg1461
(lp1670
sg1463
g211
sg1464
g211
sg1465
g211
sg1466
g1467
sg1468
g1469
sg1470
I0
sg1471
I1
sg1472
I0
sg1473
I0
sg1474
I0
sg1475
g211
sg1476
g211
sg1477
g1478
sg1479
g211
sg1480
g211
sg1481
g211
sg1482
g211
sg1483
g211
sg1484
g1485
sg1486
(lp1671
sg1488
(lp1672
sg1490
(lp1673
sg1492
(lp1674
sg1494
(lp1675
sg1496
(lp1676
sg475
(lp1677
sg1499
I1
sg1500
g211
sg1501
I0
sg1502
F4.0
sg1503
g211
sg1504
g211
sg1505
I0
sg1506
g1507
sg1508
g211
sg1509
(lp1678
sg1511
g211
sg1512
g211
sg1513
g211
sg1514
(lp1679
sg1516
(lp1680
sg1518
(lp1681
sg1520
(lp1682
sg1522
(lp1683
sg1524
(lp1684
sg1526
I00
sg1455
g211
sg1528
g1556
sg1530
I0
ssg1531
(dp1685
g1533
g1534
sg1534
g868
sg1535
I0
sg1536
g1537
sg1538
g1539
sg1541
g1542
sg1543
V<span style="color:ice blue;">1hr2 </span>\u000a</p><p>
p1686
sg1545
g1546
sg1547
g211
sg1548
g211
sg1549
(dp1687
g1551
g1469
sg1552
g175
sg1553
g1507
sg1554
(lp1688
g1556
asg477
g1557
sg1561
g1562
sssg1564
(dp1689
g1566
VNUCLEICBASEBLOCKS
p1690
sg1568
I1
ssbag844
(g1426
g846
Ntp1691
Rp1692
(dp1693
g1382
g1423
sg1383
g1430
sg1393
I1
sg1431
(dp1694
g1393
I1
sg1433
F1.0
sg1434
I0
sg1435
g211
sg1436
Vbonds
p1695
sg1398
Vf5b3056ac9884dc297937223e59d5696
p1696
sg1439
(dp1697
g285
g286
sg5
g287
sg1441
g1442
sg1443
g1444
sg1445
I1
sg9
I6
sg8
I0
ssg1446
I01
sg1447
I00
sg1448
I-1
sg1449
I01
sg1451
g211
ssg1452
(dp1698
g1454
g1455
sg1456
I0
sg1457
(lp1699
sg1459
(lp1700
sg1461
(lp1701
sg1463
g211
sg1464
g211
sg1465
g211
sg1466
g1467
sg1468
g1469
sg1470
I0
sg1471
I1
sg1472
I0
sg1473
I0
sg1474
I0
sg1475
g211
sg1476
g211
sg1477
g1478
sg1479
g211
sg1480
g211
sg1481
g211
sg1482
g211
sg1483
g211
sg1484
g1485
sg1486
(lp1702
sg1488
(lp1703
sg1490
(lp1704
sg1492
(lp1705
sg1494
(lp1706
sg1496
(lp1707
sg475
(lp1708
sg1499
I1
sg1500
g211
sg1501
I0
sg1502
F4.0
sg1503
g211
sg1504
g211
sg1505
I0
sg1506
g1507
sg1508
g211
sg1509
(lp1709
sg1511
g211
sg1512
g211
sg1513
g211
sg1514
(lp1710
sg1516
(lp1711
sg1518
(lp1712
sg1520
(lp1713
sg1522
(lp1714
sg1524
(lp1715
sg1526
I00
sg1455
VB/107-111 or B/112(G)/P,OP1,OP2,O5'
p1716
sg1528
VB/107-111 or B/112(G)/P,OP1,OP2,O5'
p1717
sg1530
I0
ssg1531
(dp1718
g1533
Vrules
p1719
sg1534
g211
sg1535
I0
sg1536
g1537
sg1538
(lp1720
VEdited scheme
p1721
asg1541
(lp1722
(lp1723
Vgrey
p1724
ag211
aa(lp1725
Vgrey
p1726
a(lp1727
NaV[C]
p1728
aaa(lp1729
Vred
p1730
a(lp1731
NaV[O]
p1732
aaa(lp1733
Vblue
p1734
a(lp1735
NaV[N]
p1736
aaa(lp1737
Vyellow
p1738
a(lp1739
NaV[S]
p1740
aaa(lp1741
Vgrey
p1742
a(lp1743
NaV[H]
p1744
aaa(lp1745
Vmagenta
p1746
a(lp1747
NaV[P]
p1748
aaasg1543
V<span style="color:;">User colour rules </span>\u000a</p><p><span style="color:grey;">[C] </span>\u000a</p><p><span style="color:red;">[O] </span>\u000a</p><p><span style="color:blue;">[N] </span>\u000a</p><p><span style="color:yellow;">[S] </span>\u000a</p><p><span style="color:grey;">[H] </span>\u000a</p><p><span style="color:magenta;">[P] </span>\u000a</p><p>
p1749
sg1545
g1546
sg1547
g211
sg1548
g211
sg1549
(dp1750
g1551
g1469
sg1552
g175
sg1553
g1507
sg1554
(lp1751
g1556
asg477
g1557
sg1561
g1562
sssg1564
(dp1752
g1566
VBALLSTICK
p1753
sg1568
I1
ssbasg1393
I1
sbsV1hr2_phases
p1754
g844
(g1378
g846
Ntp1755
Rp1756
(dp1757
g1382
g1754
sg1383
VMapData
p1758
sg1385
(lp1759
g1387
aV/Users/dialpuri/Downloads/1hr2_phases.mtz
p1760
ag1760
asg1389
(dp1761
g1391
Vmap
p1762
sg1383
g1758
sg1385
g1759
sg1393
I1
sg1394
g2
sg1395
I1
sg1398
Vc6fee0ca32864bbe8f1e9d01ee87430d
p1763
sVf
p1764
VFWT
p1765
sVphi
p1766
VPHWT
p1767
sVwt
p1768
g211
sVdifference
p1769
I0
sVstructFile
p1770
g211
sVrate
p1771
F0.3973
sVis_em_map
p1772
I00
sVfiletype
p1773
VMTZ
p1774
ssg1416
(lp1775
V1hr2_phasesMapDisp1
p1776
asg1424
(lp1777
g844
(g1426
g846
Ntp1778
Rp1779
(dp1780
g1382
g1776
sg1383
VMapDisp
p1781
sg1393
I1
sg1431
(dp1782
g1393
I1
sg1433
F0.596
sg1434
I0
sg1435
g211
sg1436
g211
sg1398
V3cbb06d702b94392a5db60211096791f
p1783
sg309
Vsurface_style_solid_chickenwire
p1784
sg308
F20.0
sVcontour_level
p1785
F0.12849537283182144
sVclip_mode
p1786
VSELECTION
p1787
sVclip_MolDisp
p1788
V1hr2MolDisp7
p1789
sVclip_point
p1790
(lp1791
g211
ag211
ag211
aF10.0
asVatom_clip_radius
p1792
F1.75
sVcolour_by_radius
p1793
I0
sVpoint_clip_radius
p1794
F1.75
sVcolour
p1795
g317
sg189
Vsurface_style_chickenwire
p1796
sVplane_definition
p1797
(dp1798
Vplane_mode
p1799
Vplane
p1800
sVselection_mode
p1801
Vthru_all
p1802
sVselection1
p1803
(lp1804
sVselection2
p1805
(lp1806
sVselection3
p1807
(lp1808
sVspecify_plane_A
p1809
I1
sVspecify_plane_B
p1810
I0
sVspecify_plane_C
p1811
I0
sVspecify_plane_D
p1812
I0
sVcrystal
p1813
g211
sVcrystal_face
p1814
VAB
p1815
sVcontour_spacing
p1816
F1.0
sVset_camera
p1817
I0
sVraise_plane
p1818
F0.0
sssbasg1393
I1
sbsVCrystalData
p1819
g844
(g1378
g846
Ntp1820
Rp1821
(dp1822
g1382
g1819
sg1383
g1819
sg1385
g211
sg1389
(dp1823
sg1416
(lp1824
Vcrystal1
p1825
aVcrystal2
p1826
aVcrystal3
p1827
asg1424
(lp1828
g844
(g1426
g846
Ntp1829
Rp1830
(dp1831
g1382
g1825
sg1383
VCrystal
p1832
sg1393
I1
sg1431
(dp1833
Vmodels_in_crystal
p1834
(lp1835
g843
asVsource
p1836
g1754
sg189
VOFF
p1837
sVsymm_diff_colour
p1838
I1
sVcell_edges
p1839
I0
sVatom_symm_radius
p1840
I75
sVsymmetry_labels
p1841
I0
sVunit_cell_shift
p1842
(lp1843
I0
aI0
aI0
assbag844
(g1426
g846
Ntp1844
Rp1845
(dp1846
g1382
g1826
sg1383
g1832
sg1393
I1
sg1431
(dp1847
g1834
(lp1848
sg1836
V1hr2_phos
p1849
sg189
g1837
sg1838
I1
sg1839
I0
sg1840
I75
sg1841
I0
sg1842
g1843
ssbag844
(g1426
g846
Ntp1850
Rp1851
(dp1852
g1382
g1827
sg1383
g1832
sg1393
I1
sg1431
(dp1853
g1834
(lp1854
sg1836
V1hr2_base
p1855
sg189
g1837
sg1838
I1
sg1839
I0
sg1840
I75
sg1841
I0
sg1842
g1843
ssbasg1393
I1
sbsg1849
g844
(g1378
g846
Ntp1856
Rp1857
(dp1858
g1382
g1849
sg1383
g1758
sg1385
(lp1859
g1387
aV/Users/dialpuri/Development/cartographer/data/1hr2_phos.map
p1860
ag1860
asg1389
(dp1861
g1391
g1762
sg1383
g1758
sg1385
g1859
sg1393
I1
sg1394
g2
sg1395
I1
sg1398
V12b33d1b2583461d82245f8bb6aa16c8
p1862
sg1764
g211
sg1766
g211
sg1768
g211
sg1769
I0
sg1770
g211
sg1771
F0.5
sg1772
I00
sg1773
VMAP
p1863
ssg1416
(lp1864
V1hr2_phosMapDisp1
p1865
asg1424
(lp1866
g844
(g1426
g846
Ntp1867
Rp1868
(dp1869
g1382
g1865
sg1383
g1781
sg1393
I1
sg1431
(dp1870
g1393
I1
sg1433
F1.0
sg1434
I0
sg1435
g211
sg1436
g211
sg1398
V076e56f5525048149fa17414dc624c41
p1871
sg309
g1784
sg308
F30.0
sg1785
F0.17296768784523012
sg1786
g1787
sg1788
V1hr2MolDisp7
p1872
sg1790
g1791
sg1792
F2.0
sg1793
I0
sg1794
F2.0
sg1795
Vcoral
p1873
sg189
g1796
sg1797
(dp1874
g1799
g1800
sg1801
g1802
sg1803
g1804
sg1805
g1806
sg1807
g1808
sg1809
I1
sg1810
I0
sg1811
I0
sg1812
I0
sg1813
g211
sg1814
g1815
sg1816
F1.0
sg1817
I0
sg1818
F0.0
sssbasg1393
I1
sbsg1855
g844
(g1378
g846
Ntp1875
Rp1876
(dp1877
g1382
g1855
sg1383
g1758
sg1385
(lp1878
g1387
aV/Users/dialpuri/Development/cartographer/data/1hr2_base.map
p1879
ag1879
asg1389
(dp1880
g1391
g1762
sg1383
g1758
sg1385
g1878
sg1393
I1
sg1394
g2
sg1395
I1
sg1398
Vb78a78a603d3460290844a2ae821b8c1
p1881
sg1764
g211
sg1766
g211
sg1768
g211
sg1769
I0
sg1770
g211
sg1771
F0.5
sg1772
I00
sg1773
g1863
ssg1416
(lp1882
V1hr2_baseMapDisp1
p1883
asg1424
(lp1884
g844
(g1426
g846
Ntp1885
Rp1886
(dp1887
g1382
g1883
sg1383
g1781
sg1393
I1
sg1431
(dp1888
g1393
I1
sg1433
F1.0
sg1434
I0
sg1435
g211
sg1436
g211
sg1398
V9f90447836f14d6a96f07cb920d641cf
p1889
sg309
g1784
sg308
F20.0
sg1785
F0.20576807856559753
sg1786
g1787
sg1788
V1hr2MolDisp7
p1890
sg1790
g1791
sg1792
F1.75
sg1793
I0
sg1794
F1.75
sg1795
Vlawn green
p1891
sg189
g1796
sg1797
(dp1892
g1799
g1800
sg1801
g1802
sg1803
g1804
sg1805
g1806
sg1807
g1808
sg1809
I1
sg1810
I0
sg1811
I0
sg1812
I0
sg1813
g211
sg1814
g1815
sg1816
F1.0
sg1817
I0
sg1818
F0.0
sssbasg1393
I1
sbsVData_list
p1893
(lp1894
g843
aVGeometricObjects
p1895
ag1754
ag1849
ag1855
ag1819
asVapplications
p1896
(dp1897
Vpicture_wizard
p1898
(dp1899
g12
g13
sg14
I0
sg15
I0
sg16
I1
sg17
I0
sg18
I0
sssVplugins
p1900
(dp1901
VRender
p1902
(dp1903
Vmagnification
p1904
F1.0
sVstereo_angle
p1905
F6.0
sVstereo_sep
p1906
F0.1
sVdpi_spin
p1907
I450
sVwidth_dpi_inches
p1908
F6.0
sVheight_dpi_inches
p1909
F4.0
sVheight
p1910
I600
sVwidth
p1911
I600
sVtransparent
p1912
I00
sVstereo
p1913
I00
sVpreview
p1914
I01
sVsave_status
p1915
I01
sVscalebartext
p1916
I00
sVsize_mode
p1917
Vdpi_defined
p1918
sVstereo_mode
p1919
Vshear
p1920
sVscaleFonts
p1921
I1
sVscaleImages
p1922
I1
sVscaleLines
p1923
I0
sVkeepAspect
p1924
I0
sVrenderParams
p1925
(dp1926
Vambocc_samples
p1927
I64
sVambocc_scale
p1928
F1.0
sVambocc
p1929
I00
sVraytrace
p1930
I00
sVsave_rib
p1931
I00
sVsmoothRibbons
p1932
I00
sssVGeometryPlugin
p1933
(dp1934
Vatoms
p1935
(lp1936
sss.